target datalayout = "e-m:e-p270:32:32-p271:32:32-p272:64:64-i64:64-i128:128-f80:128-n8:16:32:64-S128"
target triple = "x86_64-pc-linux-gnu"

%"class.llvm::SmallVectorBase" = type { ptr, i32, i32 }
%"class.llvm::ilist_node_impl.398" = type { %"class.llvm::ilist_node_base" }
%"class.llvm::ilist_node_base" = type { %"class.llvm::ilist_detail::node_base_prevnext" }
%"class.llvm::ilist_detail::node_base_prevnext" = type { ptr, ptr }
%"class.llvm::DebugLoc" = type { %"class.llvm::TypedTrackingMDRef" }
%"class.llvm::TypedTrackingMDRef" = type { %"class.llvm::TrackingMDRef" }
%"class.llvm::TrackingMDRef" = type { ptr }
%"class.llvm::DbgVariableRecord" = type { %"class.llvm::DbgRecord.base", %"class.llvm::DebugValueUser", i8, %"class.llvm::DbgRecordParamRef", %"class.llvm::DbgRecordParamRef.400", %"class.llvm::DbgRecordParamRef.400" }
%"class.llvm::DbgRecord.base" = type <{ %"class.llvm::ilist_node.397", ptr, %"class.llvm::DebugLoc", i8 }>
%"class.llvm::ilist_node.397" = type { %"class.llvm::ilist_node_impl.398" }
%"class.llvm::DebugValueUser" = type { %"struct.std::array" }
%"struct.std::array" = type { [3 x ptr] }
%"class.llvm::DbgRecordParamRef" = type { %"class.llvm::TypedTrackingMDRef" }
%"class.llvm::DbgRecordParamRef.400" = type { %"class.llvm::TypedTrackingMDRef" }
%"class.llvm::ArrayRef.952" = type { ptr, i64 }

; Function Attrs: mustprogress nounwind uwtable
define linkonce_odr hidden noundef zeroext i1 @_ZN4llvm16MetadataTracking7retrackERPNS_8MetadataES3_(ptr noundef nonnull align 8 dereferenceable(8) %0, ptr noundef nonnull align 8 dereferenceable(8) %1) #1 comdat align 2 {
  %3 = alloca ptr, align 8
  %4 = alloca ptr, align 8
  store ptr %0, ptr %3, align 8
  store ptr %1, ptr %4, align 8
  %5 = load ptr, ptr %3, align 8
  %6 = load ptr, ptr %3, align 8
  %7 = load ptr, ptr %6, align 8
  %8 = load ptr, ptr %4, align 8
  %9 = call noundef zeroext i1 @_ZN4llvm16MetadataTracking7retrackEPvRNS_8MetadataES1_(ptr noundef %5, ptr noundef nonnull align 4 dereferenceable(8) %7, ptr noundef %8)
  ret i1 %9
}

; Function Attrs: mustprogress nounwind uwtable
define linkonce_odr hidden void @_ZN4llvm16MetadataTracking7untrackERPNS_8MetadataE(ptr noundef nonnull align 8 dereferenceable(8) %0) #1 comdat align 2 {
  %2 = alloca ptr, align 8
  store ptr %0, ptr %2, align 8
  %3 = load ptr, ptr %2, align 8
  %4 = load ptr, ptr %2, align 8
  %5 = load ptr, ptr %4, align 8
  call void @_ZN4llvm16MetadataTracking7untrackEPvRNS_8MetadataE(ptr noundef %3, ptr noundef nonnull align 4 dereferenceable(8) %5)
  ret void
}

; Function Attrs: mustprogress nounwind uwtable
define linkonce_odr hidden void @_ZN4llvm13TrackingMDRef7retrackERS0_(ptr noundef nonnull align 8 dereferenceable(8) %0, ptr noundef nonnull align 8 dereferenceable(8) %1) #1 comdat align 2 {
  %3 = alloca ptr, align 8
  %4 = alloca ptr, align 8
  store ptr %0, ptr %3, align 8
  store ptr %1, ptr %4, align 8
  %5 = load ptr, ptr %3, align 8
  %6 = load ptr, ptr %4, align 8
  %7 = getelementptr inbounds nuw %"class.llvm::TrackingMDRef", ptr %6, i32 0, i32 0
  %8 = load ptr, ptr %7, align 8
  %9 = icmp ne ptr %8, null
  br i1 %9, label %10, label %17

10:                                               ; preds = %2
  %11 = load ptr, ptr %4, align 8
  %12 = getelementptr inbounds nuw %"class.llvm::TrackingMDRef", ptr %11, i32 0, i32 0
  %13 = getelementptr inbounds nuw %"class.llvm::TrackingMDRef", ptr %5, i32 0, i32 0
  %14 = call noundef zeroext i1 @_ZN4llvm16MetadataTracking7retrackERPNS_8MetadataES3_(ptr noundef nonnull align 8 dereferenceable(8) %12, ptr noundef nonnull align 8 dereferenceable(8) %13)
  %15 = load ptr, ptr %4, align 8
  %16 = getelementptr inbounds nuw %"class.llvm::TrackingMDRef", ptr %15, i32 0, i32 0
  store ptr null, ptr %16, align 8
  br label %17

17:                                               ; preds = %10, %2
  ret void
}

; Function Attrs: mustprogress nounwind uwtable
define linkonce_odr hidden void @_ZN4llvm13TrackingMDRef7untrackEv(ptr noundef nonnull align 8 dereferenceable(8) %0) #1 comdat align 2 {
  %2 = alloca ptr, align 8
  store ptr %0, ptr %2, align 8
  %3 = load ptr, ptr %2, align 8
  %4 = getelementptr inbounds nuw %"class.llvm::TrackingMDRef", ptr %3, i32 0, i32 0
  %5 = load ptr, ptr %4, align 8
  %6 = icmp ne ptr %5, null
  br i1 %6, label %7, label %9

7:                                                ; preds = %1
  %8 = getelementptr inbounds nuw %"class.llvm::TrackingMDRef", ptr %3, i32 0, i32 0
  call void @_ZN4llvm16MetadataTracking7untrackERPNS_8MetadataE(ptr noundef nonnull align 8 dereferenceable(8) %8)
  br label %9

9:                                                ; preds = %7, %1
  ret void
}

; Function Attrs: mustprogress nounwind uwtable
define linkonce_odr hidden void @_ZN4llvm13TrackingMDRefD2Ev(ptr noundef nonnull align 8 dereferenceable(8) %0) unnamed_addr #1 comdat align 2 {
  %2 = alloca ptr, align 8
  store ptr %0, ptr %2, align 8
  %3 = load ptr, ptr %2, align 8
  call void @_ZN4llvm13TrackingMDRef7untrackEv(ptr noundef nonnull align 8 dereferenceable(8) %3)
  ret void
}

; Function Attrs: mustprogress nounwind uwtable
define linkonce_odr hidden noundef nonnull align 8 dereferenceable(8) ptr @_ZN4llvm13TrackingMDRefaSEOS0_(ptr noundef nonnull align 8 dereferenceable(8) %0, ptr noundef nonnull align 8 dereferenceable(8) %1) #1 comdat align 2 {
  %3 = alloca ptr, align 8
  %4 = alloca ptr, align 8
  %5 = alloca ptr, align 8
  store ptr %0, ptr %4, align 8
  store ptr %1, ptr %5, align 8
  %6 = load ptr, ptr %4, align 8
  %7 = load ptr, ptr %5, align 8
  %8 = icmp eq ptr %7, %6
  br i1 %8, label %9, label %10

9:                                                ; preds = %2
  store ptr %6, ptr %3, align 8
  br label %16

10:                                               ; preds = %2
  call void @_ZN4llvm13TrackingMDRef7untrackEv(ptr noundef nonnull align 8 dereferenceable(8) %6)
  %11 = load ptr, ptr %5, align 8
  %12 = getelementptr inbounds nuw %"class.llvm::TrackingMDRef", ptr %11, i32 0, i32 0
  %13 = load ptr, ptr %12, align 8
  %14 = getelementptr inbounds nuw %"class.llvm::TrackingMDRef", ptr %6, i32 0, i32 0
  store ptr %13, ptr %14, align 8
  %15 = load ptr, ptr %5, align 8
  call void @_ZN4llvm13TrackingMDRef7retrackERS0_(ptr noundef nonnull align 8 dereferenceable(8) %6, ptr noundef nonnull align 8 dereferenceable(8) %15)
  store ptr %6, ptr %3, align 8
  br label %16

16:                                               ; preds = %10, %9
  %17 = load ptr, ptr %3, align 8
  ret ptr %17
}

; Function Attrs: mustprogress nounwind uwtable
define linkonce_odr hidden noundef nonnull align 8 dereferenceable(8) ptr @_ZNSt14__array_traitsIPN4llvm8MetadataELm3EE6_S_refERA3_KS2_m(ptr noundef nonnull align 8 dereferenceable(24) %0, i64 noundef %1) #1 comdat align 2 {
  %3 = alloca ptr, align 8
  %4 = alloca i64, align 8
  store ptr %0, ptr %3, align 8
  store i64 %1, ptr %4, align 8
  %5 = load ptr, ptr %3, align 8
  %6 = load i64, ptr %4, align 8
  %7 = getelementptr inbounds [3 x ptr], ptr %5, i64 0, i64 %6
  ret ptr %7
}

; Function Attrs: mustprogress nounwind uwtable
define linkonce_odr hidden void @_ZN4llvm18TypedTrackingMDRefINS_6MDNodeEED2Ev(ptr noundef nonnull align 8 dereferenceable(8) %0) unnamed_addr #1 comdat align 2 {
  %2 = alloca ptr, align 8
  store ptr %0, ptr %2, align 8
  %3 = load ptr, ptr %2, align 8
  %4 = getelementptr inbounds nuw %"class.llvm::TypedTrackingMDRef", ptr %3, i32 0, i32 0
  call void @_ZN4llvm13TrackingMDRefD2Ev(ptr noundef nonnull align 8 dereferenceable(8) %4) #2
  ret void
}

; Function Attrs: mustprogress nounwind uwtable
define linkonce_odr hidden noundef nonnull align 8 dereferenceable(8) ptr @_ZN4llvm18TypedTrackingMDRefINS_6MDNodeEEaSEOS2_(ptr noundef nonnull align 8 dereferenceable(8) %0, ptr noundef nonnull align 8 dereferenceable(8) %1) #1 comdat align 2 {
  %3 = alloca ptr, align 8
  %4 = alloca ptr, align 8
  store ptr %0, ptr %3, align 8
  store ptr %1, ptr %4, align 8
  %5 = load ptr, ptr %3, align 8
  %6 = load ptr, ptr %4, align 8
  %7 = getelementptr inbounds nuw %"class.llvm::TypedTrackingMDRef", ptr %6, i32 0, i32 0
  %8 = getelementptr inbounds nuw %"class.llvm::TypedTrackingMDRef", ptr %5, i32 0, i32 0
  %9 = call noundef nonnull align 8 dereferenceable(8) ptr @_ZN4llvm13TrackingMDRefaSEOS0_(ptr noundef nonnull align 8 dereferenceable(8) %8, ptr noundef nonnull align 8 dereferenceable(8) %7)
  ret ptr %5
}

; Function Attrs: mustprogress nounwind uwtable
define linkonce_odr hidden noundef ptr @_ZNK4llvm25SmallVectorTemplateCommonImvE5beginEv(ptr noundef nonnull align 8 dereferenceable(16) %0) #1 comdat align 2 {
  %2 = alloca ptr, align 8
  store ptr %0, ptr %2, align 8
  %3 = load ptr, ptr %2, align 8
  %4 = getelementptr inbounds nuw %"class.llvm::SmallVectorBase", ptr %3, i32 0, i32 0
  %5 = load ptr, ptr %4, align 8
  ret ptr %5
}

; Function Attrs: mustprogress nounwind uwtable
define linkonce_odr hidden noundef nonnull align 8 dereferenceable(8) ptr @_ZNSt5arrayIPN4llvm8MetadataELm3EEixEm(ptr noundef nonnull align 8 dereferenceable(24) %0, i64 noundef %1) #1 comdat align 2 {
  %3 = alloca ptr, align 8
  %4 = alloca i64, align 8
  store ptr %0, ptr %3, align 8
  store i64 %1, ptr %4, align 8
  %5 = load ptr, ptr %3, align 8
  %6 = getelementptr inbounds nuw %"struct.std::array", ptr %5, i32 0, i32 0
  %7 = load i64, ptr %4, align 8
  %8 = call noundef nonnull align 8 dereferenceable(8) ptr @_ZNSt14__array_traitsIPN4llvm8MetadataELm3EE6_S_refERA3_KS2_m(ptr noundef nonnull align 8 dereferenceable(24) %6, i64 noundef %7) #2
  ret ptr %8
}

; Function Attrs: mustprogress nounwind uwtable
define linkonce_odr hidden void @_ZN4llvm17DbgRecordParamRefINS_12DIExpressionEED2Ev(ptr noundef nonnull align 8 dereferenceable(8) %0) unnamed_addr #1 comdat align 2 {
  %2 = alloca ptr, align 8
  store ptr %0, ptr %2, align 8
  %3 = load ptr, ptr %2, align 8
  %4 = getelementptr inbounds nuw %"class.llvm::DbgRecordParamRef.400", ptr %3, i32 0, i32 0
  call void @_ZN4llvm18TypedTrackingMDRefINS_6MDNodeEED2Ev(ptr noundef nonnull align 8 dereferenceable(8) %4) #2
  ret void
}

; Function Attrs: mustprogress nounwind uwtable
define linkonce_odr hidden noundef nonnull align 8 dereferenceable(8) ptr @_ZN4llvm17DbgRecordParamRefINS_12DIExpressionEEaSEOS2_(ptr noundef nonnull align 8 dereferenceable(8) %0, ptr noundef nonnull align 8 dereferenceable(8) %1) #1 comdat align 2 {
  %3 = alloca ptr, align 8
  %4 = alloca ptr, align 8
  store ptr %0, ptr %3, align 8
  store ptr %1, ptr %4, align 8
  %5 = load ptr, ptr %3, align 8
  %6 = getelementptr inbounds nuw %"class.llvm::DbgRecordParamRef.400", ptr %5, i32 0, i32 0
  %7 = load ptr, ptr %4, align 8
  %8 = getelementptr inbounds nuw %"class.llvm::DbgRecordParamRef.400", ptr %7, i32 0, i32 0
  %9 = call noundef nonnull align 8 dereferenceable(8) ptr @_ZN4llvm18TypedTrackingMDRefINS_6MDNodeEEaSEOS2_(ptr noundef nonnull align 8 dereferenceable(8) %6, ptr noundef nonnull align 8 dereferenceable(8) %8)
  ret ptr %5
}

; Function Attrs: mustprogress nounwind uwtable
define linkonce_odr hidden noundef ptr @_ZNK4llvm25SmallVectorTemplateCommonImvE4dataEv(ptr noundef nonnull align 8 dereferenceable(16) %0) #1 comdat align 2 {
  %2 = alloca ptr, align 8
  store ptr %0, ptr %2, align 8
  %3 = load ptr, ptr %2, align 8
  %4 = call noundef ptr @_ZNK4llvm25SmallVectorTemplateCommonImvE5beginEv(ptr noundef nonnull align 8 dereferenceable(16) %3)
  ret ptr %4
}

; Function Attrs: mustprogress nounwind uwtable
define linkonce_odr hidden void @_ZN4llvm14DebugValueUser15resetDebugValueEmPNS_8MetadataE(ptr noundef nonnull align 8 dereferenceable(24) %0, i64 noundef %1, ptr noundef %2) #1 comdat align 2 {
  %4 = alloca ptr, align 8
  %5 = alloca i64, align 8
  %6 = alloca ptr, align 8
  store ptr %0, ptr %4, align 8
  store i64 %1, ptr %5, align 8
  store ptr %2, ptr %6, align 8
  %7 = load ptr, ptr %4, align 8
  %8 = load i64, ptr %5, align 8
  call void @_ZN4llvm14DebugValueUser17untrackDebugValueEm(ptr noundef nonnull align 8 dereferenceable(24) %7, i64 noundef %8)
  %9 = load ptr, ptr %6, align 8
  %10 = getelementptr inbounds nuw %"class.llvm::DebugValueUser", ptr %7, i32 0, i32 0
  %11 = load i64, ptr %5, align 8
  %12 = call noundef nonnull align 8 dereferenceable(8) ptr @_ZNSt5arrayIPN4llvm8MetadataELm3EEixEm(ptr noundef nonnull align 8 dereferenceable(24) %10, i64 noundef %11) #2
  store ptr %9, ptr %12, align 8
  %13 = load i64, ptr %5, align 8
  call void @_ZN4llvm14DebugValueUser15trackDebugValueEm(ptr noundef nonnull align 8 dereferenceable(24) %7, i64 noundef %13)
  ret void
}

; Function Attrs: mustprogress nounwind uwtable
define linkonce_odr hidden void @_ZN4llvm17DbgVariableRecord13setExpressionEPNS_12DIExpressionE(ptr noundef nonnull align 8 dereferenceable(96) %0, ptr noundef %1) #1 comdat align 2 {
  %3 = alloca ptr, align 8
  %4 = alloca ptr, align 8
  %5 = alloca %"class.llvm::DbgRecordParamRef.400", align 8
  store ptr %0, ptr %3, align 8
  store ptr %1, ptr %4, align 8
  %6 = load ptr, ptr %3, align 8
  %7 = load ptr, ptr %4, align 8
  call void @_ZN4llvm17DbgRecordParamRefINS_12DIExpressionEEC1EPKS1_(ptr noundef nonnull align 8 dereferenceable(8) %5, ptr noundef %7)
  %8 = getelementptr inbounds nuw %"class.llvm::DbgVariableRecord", ptr %6, i32 0, i32 4
  %9 = call noundef nonnull align 8 dereferenceable(8) ptr @_ZN4llvm17DbgRecordParamRefINS_12DIExpressionEEaSEOS2_(ptr noundef nonnull align 8 dereferenceable(8) %8, ptr noundef nonnull align 8 dereferenceable(8) %5)
  call void @_ZN4llvm17DbgRecordParamRefINS_12DIExpressionEED2Ev(ptr noundef nonnull align 8 dereferenceable(8) %5) #2
  ret void
}

; Function Attrs: mustprogress nounwind uwtable
define linkonce_odr hidden noundef ptr @_ZN4llvm12DIExpression3getERNS_11LLVMContextENS_8ArrayRefImEE(ptr noundef nonnull align 8 dereferenceable(8) %0, ptr %1, i64 %2) #1 comdat align 2 {
  %4 = alloca %"class.llvm::ArrayRef.952", align 8
  %5 = alloca ptr, align 8
  %6 = alloca %"class.llvm::ArrayRef.952", align 8
  %7 = getelementptr inbounds nuw { ptr, i64 }, ptr %4, i32 0, i32 0
  store ptr %1, ptr %7, align 8
  %8 = getelementptr inbounds nuw { ptr, i64 }, ptr %4, i32 0, i32 1
  store i64 %2, ptr %8, align 8
  store ptr %0, ptr %5, align 8
  %9 = load ptr, ptr %5, align 8
  call void @llvm.memcpy.p0.p0.i64(ptr align 8 %6, ptr align 8 %4, i64 16, i1 false)
  %10 = getelementptr inbounds nuw { ptr, i64 }, ptr %6, i32 0, i32 0
  %11 = load ptr, ptr %10, align 8
  %12 = getelementptr inbounds nuw { ptr, i64 }, ptr %6, i32 0, i32 1
  %13 = load i64, ptr %12, align 8
  %14 = call noundef ptr @_ZN4llvm12DIExpression7getImplERNS_11LLVMContextENS_8ArrayRefImEENS_8Metadata11StorageTypeEb(ptr noundef nonnull align 8 dereferenceable(8) %9, ptr %11, i64 %13, i32 noundef 0, i1 noundef zeroext true)
  ret ptr %14
}

; Function Attrs: mustprogress nounwind uwtable
define linkonce_odr hidden void @_ZN4llvm8ArrayRefImEC2IvEERKNS_25SmallVectorTemplateCommonImT_EE(ptr noundef nonnull align 8 dereferenceable(16) %0, ptr noundef nonnull align 8 dereferenceable(16) %1) unnamed_addr #1 comdat align 2 {
  %3 = alloca ptr, align 8
  %4 = alloca ptr, align 8
  store ptr %0, ptr %3, align 8
  store ptr %1, ptr %4, align 8
  %5 = load ptr, ptr %3, align 8
  %6 = getelementptr inbounds nuw %"class.llvm::ArrayRef.952", ptr %5, i32 0, i32 0
  %7 = load ptr, ptr %4, align 8
  %8 = call noundef ptr @_ZNK4llvm25SmallVectorTemplateCommonImvE4dataEv(ptr noundef nonnull align 8 dereferenceable(16) %7)
  store ptr %8, ptr %6, align 8
  %9 = getelementptr inbounds nuw %"class.llvm::ArrayRef.952", ptr %5, i32 0, i32 1
  %10 = load ptr, ptr %4, align 8
  %11 = call noundef i64 @_ZNK4llvm15SmallVectorBaseIjE4sizeEv(ptr noundef nonnull align 8 dereferenceable(16) %10)
  store i64 %11, ptr %9, align 8
  ret void
}

; Function Attrs: mustprogress nounwind uwtable
define linkonce_odr hidden void @_ZN4llvm17DbgVariableRecord14setRawLocationEPNS_8MetadataE(ptr noundef nonnull align 8 dereferenceable(96) %0, ptr noundef %1) #1 comdat align 2 {
  %3 = alloca ptr, align 8
  %4 = alloca ptr, align 8
  store ptr %0, ptr %3, align 8
  store ptr %1, ptr %4, align 8
  %5 = load ptr, ptr %3, align 8
  %6 = getelementptr inbounds i8, ptr %5, i64 40
  %7 = load ptr, ptr %4, align 8
  call void @_ZN4llvm14DebugValueUser15resetDebugValueEmPNS_8MetadataE(ptr noundef nonnull align 8 dereferenceable(24) %6, i64 noundef 0, ptr noundef %7)
  ret void
}

; Function Attrs: mustprogress nounwind uwtable
define internal void @_ZL21updateDVIWithLocationIN4llvm17DbgVariableRecordEEvRT_PNS0_5ValueERNS0_15SmallVectorImplImEE(ptr noundef nonnull align 8 dereferenceable(96) %0, ptr noundef %1, ptr noundef nonnull align 8 dereferenceable(16) %2) #1 {
  %4 = alloca ptr, align 8
  %5 = alloca ptr, align 8
  %6 = alloca ptr, align 8
  %7 = alloca %"class.llvm::ArrayRef.952", align 8
  %8 = alloca %"class.llvm::ArrayRef.952", align 8
  store ptr %0, ptr %4, align 8
  store ptr %1, ptr %5, align 8
  store ptr %2, ptr %6, align 8
  %9 = load ptr, ptr %4, align 8
  %10 = load ptr, ptr %5, align 8
  %11 = call noundef ptr @_ZN4llvm15ValueAsMetadata3getEPNS_5ValueE(ptr noundef %10)
  call void @_ZN4llvm17DbgVariableRecord14setRawLocationEPNS_8MetadataE(ptr noundef nonnull align 8 dereferenceable(96) %9, ptr noundef %11)
  %12 = load ptr, ptr %4, align 8
  %13 = load ptr, ptr %4, align 8
  %14 = call noundef nonnull align 8 dereferenceable(8) ptr @_ZN4llvm9DbgRecord10getContextEv(ptr noundef nonnull align 8 dereferenceable(33) %13)
  %15 = load ptr, ptr %6, align 8
  call void @_ZN4llvm8ArrayRefImEC2IvEERKNS_25SmallVectorTemplateCommonImT_EE(ptr noundef nonnull align 8 dereferenceable(16) %7, ptr noundef nonnull align 8 dereferenceable(16) %15)
  %16 = getelementptr inbounds nuw { ptr, i64 }, ptr %7, i32 0, i32 0
  %17 = load ptr, ptr %16, align 8
  %18 = getelementptr inbounds nuw { ptr, i64 }, ptr %7, i32 0, i32 1
  %19 = load i64, ptr %18, align 8
  %20 = call noundef ptr @_ZN4llvm12DIExpression3getERNS_11LLVMContextENS_8ArrayRefImEE(ptr noundef nonnull align 8 dereferenceable(8) %14, ptr %17, i64 %19)
  call void @_ZN4llvm17DbgVariableRecord13setExpressionEPNS_12DIExpressionE(ptr noundef nonnull align 8 dereferenceable(96) %12, ptr noundef %20)
  %21 = load ptr, ptr %4, align 8
  %22 = load ptr, ptr %4, align 8
  %23 = call noundef nonnull align 8 dereferenceable(8) ptr @_ZN4llvm9DbgRecord10getContextEv(ptr noundef nonnull align 8 dereferenceable(33) %22)
  %24 = load ptr, ptr %6, align 8
  call void @_ZN4llvm8ArrayRefImEC2IvEERKNS_25SmallVectorTemplateCommonImT_EE(ptr noundef nonnull align 8 dereferenceable(16) %8, ptr noundef nonnull align 8 dereferenceable(16) %24)
  %25 = getelementptr inbounds nuw { ptr, i64 }, ptr %8, i32 0, i32 0
  %26 = load ptr, ptr %25, align 8
  %27 = getelementptr inbounds nuw { ptr, i64 }, ptr %8, i32 0, i32 1
  %28 = load i64, ptr %27, align 8
  %29 = call noundef ptr @_ZN4llvm12DIExpression3getERNS_11LLVMContextENS_8ArrayRefImEE(ptr noundef nonnull align 8 dereferenceable(8) %23, ptr %26, i64 %28)
  call void @_ZN4llvm17DbgVariableRecord13setExpressionEPNS_12DIExpressionE(ptr noundef nonnull align 8 dereferenceable(96) %21, ptr noundef %29)
  ret void
}