; Function Attrs: mustprogress nounwind uwtable
define internal fastcc void @_ZL21updateDVIWithLocationIN4llvm17DbgVariableRecordEEvRT_PNS0_5ValueERNS0_15SmallVectorImplImEE(ptr noundef nonnull align 8 dereferenceable(96) %0, ptr noundef %1, ptr noundef nonnull align 8 dereferenceable(16) %2) unnamed_addr #0 {
  %4 = alloca %"class.llvm::DbgRecordParamRef.400", align 8
  %5 = alloca %"class.llvm::DbgRecordParamRef.400", align 8
  %6 = tail call noundef ptr @_ZN4llvm15ValueAsMetadata3getEPNS_5ValueE(ptr noundef %1) #21
  %7 = getelementptr inbounds i8, ptr %0, i64 40
  tail call void @_ZN4llvm14DebugValueUser17untrackDebugValueEm(ptr noundef nonnull align 8 dereferenceable(24) %7, i64 noundef 0) #21
  store ptr %6, ptr %7, align 8
  tail call void @_ZN4llvm14DebugValueUser15trackDebugValueEm(ptr noundef nonnull align 8 dereferenceable(24) %7, i64 noundef 0) #21
  %8 = tail call noundef nonnull align 8 dereferenceable(8) ptr @_ZN4llvm9DbgRecord10getContextEv(ptr noundef nonnull align 8 dereferenceable(33) %0) #21
  %9 = load ptr, ptr %2, align 8
  %10 = tail call noundef i64 @_ZNK4llvm15SmallVectorBaseIjE4sizeEv(ptr noundef nonnull align 8 dereferenceable(16) %2) #21
  %11 = tail call noundef ptr @_ZN4llvm12DIExpression7getImplERNS_11LLVMContextENS_8ArrayRefImEENS_8Metadata11StorageTypeEb(ptr noundef nonnull align 8 dereferenceable(8) %8, ptr %9, i64 %10, i32 noundef 0, i1 noundef zeroext true) #21
  call void @llvm.lifetime.start.p0(i64 8, ptr nonnull %5)
  call void @_ZN4llvm17DbgRecordParamRefINS_12DIExpressionEEC1EPKS1_(ptr noundef nonnull align 8 dereferenceable(8) %5, ptr noundef %11) #21
  %12 = getelementptr inbounds nuw i8, ptr %0, i64 80
  %13 = icmp eq ptr %5, %12
  br i1 %13, label %_ZN4llvm17DbgRecordParamRefINS_12DIExpressionEEaSEOS2_.exit.i, label %14

14:                                               ; preds = %3
  %15 = load ptr, ptr %12, align 8
  %.not.i.i.i.i.i = icmp eq ptr %15, null
  br i1 %.not.i.i.i.i.i, label %_ZN4llvm13TrackingMDRef7untrackEv.exit.i.i.i.i, label %16

16:                                               ; preds = %14
  call void @_ZN4llvm16MetadataTracking7untrackEPvRNS_8MetadataE(ptr noundef nonnull %12, ptr noundef nonnull align 4 dereferenceable(8) %15) #21
  br label %_ZN4llvm13TrackingMDRef7untrackEv.exit.i.i.i.i

_ZN4llvm13TrackingMDRef7untrackEv.exit.i.i.i.i:   ; preds = %16, %14
  %17 = load ptr, ptr %5, align 8
  store ptr %17, ptr %12, align 8
  %.not.i6.i.i.i.i = icmp eq ptr %17, null
  br i1 %.not.i6.i.i.i.i, label %_ZN4llvm17DbgVariableRecord13setExpressionEPNS_12DIExpressionE.exit, label %18

18:                                               ; preds = %_ZN4llvm13TrackingMDRef7untrackEv.exit.i.i.i.i
  %19 = call noundef zeroext i1 @_ZN4llvm16MetadataTracking7retrackEPvRNS_8MetadataES1_(ptr noundef nonnull %5, ptr noundef nonnull align 4 dereferenceable(8) %17, ptr noundef nonnull %12) #21
  br label %_ZN4llvm17DbgVariableRecord13setExpressionEPNS_12DIExpressionE.exit

_ZN4llvm17DbgRecordParamRefINS_12DIExpressionEEaSEOS2_.exit.i: ; preds = %3
  %.pr.i = load ptr, ptr %5, align 8
  %.not.i.i.i.i2.i = icmp eq ptr %.pr.i, null
  br i1 %.not.i.i.i.i2.i, label %_ZN4llvm17DbgVariableRecord13setExpressionEPNS_12DIExpressionE.exit, label %20

20:                                               ; preds = %_ZN4llvm17DbgRecordParamRefINS_12DIExpressionEEaSEOS2_.exit.i
  call void @_ZN4llvm16MetadataTracking7untrackEPvRNS_8MetadataE(ptr noundef nonnull %5, ptr noundef nonnull align 4 dereferenceable(8) %.pr.i) #21
  br label %_ZN4llvm17DbgVariableRecord13setExpressionEPNS_12DIExpressionE.exit

_ZN4llvm17DbgVariableRecord13setExpressionEPNS_12DIExpressionE.exit: ; preds = %_ZN4llvm13TrackingMDRef7untrackEv.exit.i.i.i.i, %18, %_ZN4llvm17DbgRecordParamRefINS_12DIExpressionEEaSEOS2_.exit.i, %20
  call void @llvm.lifetime.end.p0(i64 8, ptr nonnull %5)
  %21 = call noundef nonnull align 8 dereferenceable(8) ptr @_ZN4llvm9DbgRecord10getContextEv(ptr noundef nonnull align 8 dereferenceable(33) %0) #21
  %22 = load ptr, ptr %2, align 8
  %23 = call noundef i64 @_ZNK4llvm15SmallVectorBaseIjE4sizeEv(ptr noundef nonnull align 8 dereferenceable(16) %2) #21
  %24 = call noundef ptr @_ZN4llvm12DIExpression7getImplERNS_11LLVMContextENS_8ArrayRefImEENS_8Metadata11StorageTypeEb(ptr noundef nonnull align 8 dereferenceable(8) %21, ptr %22, i64 %23, i32 noundef 0, i1 noundef zeroext true) #21
  call void @llvm.lifetime.start.p0(i64 8, ptr nonnull %4)
  call void @_ZN4llvm17DbgRecordParamRefINS_12DIExpressionEEC1EPKS1_(ptr noundef nonnull align 8 dereferenceable(8) %4, ptr noundef %24) #21
  %25 = icmp eq ptr %4, %12
  br i1 %25, label %_ZN4llvm17DbgRecordParamRefINS_12DIExpressionEEaSEOS2_.exit.i11, label %26

26:                                               ; preds = %_ZN4llvm17DbgVariableRecord13setExpressionEPNS_12DIExpressionE.exit
  %27 = load ptr, ptr %12, align 8
  %.not.i.i.i.i.i8 = icmp eq ptr %27, null
  br i1 %.not.i.i.i.i.i8, label %_ZN4llvm13TrackingMDRef7untrackEv.exit.i.i.i.i9, label %28

28:                                               ; preds = %26
  call void @_ZN4llvm16MetadataTracking7untrackEPvRNS_8MetadataE(ptr noundef nonnull %12, ptr noundef nonnull align 4 dereferenceable(8) %27) #21
  br label %_ZN4llvm13TrackingMDRef7untrackEv.exit.i.i.i.i9

_ZN4llvm13TrackingMDRef7untrackEv.exit.i.i.i.i9:  ; preds = %28, %26
  %29 = load ptr, ptr %4, align 8
  store ptr %29, ptr %12, align 8
  %.not.i6.i.i.i.i10 = icmp eq ptr %29, null
  br i1 %.not.i6.i.i.i.i10, label %_ZN4llvm17DbgVariableRecord13setExpressionEPNS_12DIExpressionE.exit14, label %30

30:                                               ; preds = %_ZN4llvm13TrackingMDRef7untrackEv.exit.i.i.i.i9
  %31 = call noundef zeroext i1 @_ZN4llvm16MetadataTracking7retrackEPvRNS_8MetadataES1_(ptr noundef nonnull %4, ptr noundef nonnull align 4 dereferenceable(8) %29, ptr noundef nonnull %12) #21
  br label %_ZN4llvm17DbgVariableRecord13setExpressionEPNS_12DIExpressionE.exit14

_ZN4llvm17DbgRecordParamRefINS_12DIExpressionEEaSEOS2_.exit.i11: ; preds = %_ZN4llvm17DbgVariableRecord13setExpressionEPNS_12DIExpressionE.exit
  %.pr.i12 = load ptr, ptr %4, align 8
  %.not.i.i.i.i2.i13 = icmp eq ptr %.pr.i12, null
  br i1 %.not.i.i.i.i2.i13, label %_ZN4llvm17DbgVariableRecord13setExpressionEPNS_12DIExpressionE.exit14, label %32

32:                                               ; preds = %_ZN4llvm17DbgRecordParamRefINS_12DIExpressionEEaSEOS2_.exit.i11
  call void @_ZN4llvm16MetadataTracking7untrackEPvRNS_8MetadataE(ptr noundef nonnull %4, ptr noundef nonnull align 4 dereferenceable(8) %.pr.i12) #21
  br label %_ZN4llvm17DbgVariableRecord13setExpressionEPNS_12DIExpressionE.exit14

_ZN4llvm17DbgVariableRecord13setExpressionEPNS_12DIExpressionE.exit14: ; preds = %_ZN4llvm13TrackingMDRef7untrackEv.exit.i.i.i.i9, %30, %_ZN4llvm17DbgRecordParamRefINS_12DIExpressionEEaSEOS2_.exit.i11, %32
  call void @llvm.lifetime.end.p0(i64 8, ptr nonnull %4)
  ret void
}